	.file	"strung.cpp"
.lcomm __ZStL8__ioinit,1,1
	.def	___main;	.scl	2;	.type	32;	.endef
	.section .rdata,"dr"
LC0:
	.ascii "They carried a net \0"
LC1:
	.ascii "and their hearts were set\0"
	.align 4
LC2:
	.ascii "In a bowl to sea went wise men three\0"
LC3:
	.ascii "On a brilliant night in June\0"
LC4:
	.ascii "On fishing up the moon.\0"
	.text
	.globl	_main
	.def	_main;	.scl	2;	.type	32;	.endef
_main:
LFB952:
	.cfi_startproc
	.cfi_personality 0,___gxx_personality_v0
	.cfi_lsda 0,LLSDA952
	leal	4(%esp), %ecx
	.cfi_def_cfa 1, 0
	andl	$-16, %esp
	pushl	-4(%ecx)
	pushl	%ebp
	.cfi_escape 0x10,0x5,0x2,0x75,0
	movl	%esp, %ebp
	pushl	%ebx
	pushl	%ecx
	.cfi_escape 0xf,0x3,0x75,0x78,0x6
	.cfi_escape 0x10,0x3,0x2,0x75,0x7c
	subl	$32, %esp
	call	___main
	leal	-9(%ebp), %eax
	movl	%eax, %ecx
	call	__ZNSaIcEC1Ev
	leal	-16(%ebp), %eax
	leal	-9(%ebp), %edx
	movl	%edx, 4(%esp)
	movl	$LC0, (%esp)
	movl	%eax, %ecx
LEHB0:
	call	__ZNSsC1EPKcRKSaIcE
LEHE0:
	subl	$8, %esp
	leal	-9(%ebp), %eax
	movl	%eax, %ecx
	call	__ZNSaIcED1Ev
	leal	-16(%ebp), %eax
	movl	$LC1, (%esp)
	movl	%eax, %ecx
LEHB1:
	call	__ZNSspLEPKc
	subl	$4, %esp
	movl	$LC2, 4(%esp)
	movl	$__ZSt4cout, (%esp)
	call	__ZStlsISt11char_traitsIcEERSt13basic_ostreamIcT_ES5_PKc
	movl	$__ZSt4endlIcSt11char_traitsIcEERSt13basic_ostreamIT_T0_ES6_, (%esp)
	movl	%eax, %ecx
	call	__ZNSolsEPFRSoS_E
	subl	$4, %esp
	movl	$LC3, 4(%esp)
	movl	$__ZSt4cout, (%esp)
	call	__ZStlsISt11char_traitsIcEERSt13basic_ostreamIcT_ES5_PKc
	movl	$__ZSt4endlIcSt11char_traitsIcEERSt13basic_ostreamIT_T0_ES6_, (%esp)
	movl	%eax, %ecx
	call	__ZNSolsEPFRSoS_E
	subl	$4, %esp
	leal	-16(%ebp), %eax
	movl	%eax, 4(%esp)
	movl	$__ZSt4cout, (%esp)
	call	__ZStlsIcSt11char_traitsIcESaIcEERSt13basic_ostreamIT_T0_ES7_RKSbIS4_S5_T1_E
	movl	$__ZSt4endlIcSt11char_traitsIcEERSt13basic_ostreamIT_T0_ES6_, (%esp)
	movl	%eax, %ecx
	call	__ZNSolsEPFRSoS_E
	subl	$4, %esp
	movl	$LC4, 4(%esp)
	movl	$__ZSt4cout, (%esp)
	call	__ZStlsISt11char_traitsIcEERSt13basic_ostreamIcT_ES5_PKc
	movl	$__ZSt4endlIcSt11char_traitsIcEERSt13basic_ostreamIT_T0_ES6_, (%esp)
	movl	%eax, %ecx
	call	__ZNSolsEPFRSoS_E
LEHE1:
	subl	$4, %esp
	movl	$0, %ebx
	leal	-16(%ebp), %eax
	movl	%eax, %ecx
LEHB2:
	call	__ZNSsD1Ev
LEHE2:
	movl	%ebx, %eax
	jmp	L9
L6:
	movl	%eax, %ebx
	leal	-9(%ebp), %eax
	movl	%eax, %ecx
	call	__ZNSaIcED1Ev
	movl	%ebx, %eax
	jmp	L4
L8:
	movl	%eax, %ebx
	leal	-16(%ebp), %eax
	movl	%eax, %ecx
	call	__ZNSsD1Ev
	movl	%ebx, %eax
	jmp	L4
L7:
L4:
	movl	%eax, (%esp)
LEHB3:
	call	__Unwind_Resume
LEHE3:
L9:
	leal	-8(%ebp), %esp
	popl	%ecx
	.cfi_restore 1
	.cfi_def_cfa 1, 0
	popl	%ebx
	.cfi_restore 3
	popl	%ebp
	.cfi_restore 5
	leal	-4(%ecx), %esp
	.cfi_def_cfa 4, 4
	ret
	.cfi_endproc
LFE952:
	.def	___gxx_personality_v0;	.scl	2;	.type	32;	.endef
	.section	.gcc_except_table,"w"
LLSDA952:
	.byte	0xff
	.byte	0xff
	.byte	0x1
	.uleb128 LLSDACSE952-LLSDACSB952
LLSDACSB952:
	.uleb128 LEHB0-LFB952
	.uleb128 LEHE0-LEHB0
	.uleb128 L6-LFB952
	.uleb128 0
	.uleb128 LEHB1-LFB952
	.uleb128 LEHE1-LEHB1
	.uleb128 L8-LFB952
	.uleb128 0
	.uleb128 LEHB2-LFB952
	.uleb128 LEHE2-LEHB2
	.uleb128 L7-LFB952
	.uleb128 0
	.uleb128 LEHB3-LFB952
	.uleb128 LEHE3-LEHB3
	.uleb128 0
	.uleb128 0
LLSDACSE952:
	.text
	.def	___tcf_0;	.scl	3;	.type	32;	.endef
___tcf_0:
LFB996:
	.cfi_startproc
	pushl	%ebp
	.cfi_def_cfa_offset 8
	.cfi_offset 5, -8
	movl	%esp, %ebp
	.cfi_def_cfa_register 5
	subl	$8, %esp
	movl	$__ZStL8__ioinit, %ecx
	call	__ZNSt8ios_base4InitD1Ev
	leave
	.cfi_restore 5
	.cfi_def_cfa 4, 4
	ret
	.cfi_endproc
LFE996:
	.def	__Z41__static_initialization_and_destruction_0ii;	.scl	3;	.type	32;	.endef
__Z41__static_initialization_and_destruction_0ii:
LFB995:
	.cfi_startproc
	pushl	%ebp
	.cfi_def_cfa_offset 8
	.cfi_offset 5, -8
	movl	%esp, %ebp
	.cfi_def_cfa_register 5
	subl	$24, %esp
	cmpl	$1, 8(%ebp)
	jne	L11
	cmpl	$65535, 12(%ebp)
	jne	L11
	movl	$__ZStL8__ioinit, %ecx
	call	__ZNSt8ios_base4InitC1Ev
	movl	$___tcf_0, (%esp)
	call	_atexit
L11:
	leave
	.cfi_restore 5
	.cfi_def_cfa 4, 4
	ret
	.cfi_endproc
LFE995:
	.def	__GLOBAL__sub_I_main;	.scl	3;	.type	32;	.endef
__GLOBAL__sub_I_main:
LFB997:
	.cfi_startproc
	pushl	%ebp
	.cfi_def_cfa_offset 8
	.cfi_offset 5, -8
	movl	%esp, %ebp
	.cfi_def_cfa_register 5
	subl	$24, %esp
	movl	$65535, 4(%esp)
	movl	$1, (%esp)
	call	__Z41__static_initialization_and_destruction_0ii
	leave
	.cfi_restore 5
	.cfi_def_cfa 4, 4
	ret
	.cfi_endproc
LFE997:
	.section	.ctors,"w"
	.align 4
	.long	__GLOBAL__sub_I_main
	.ident	"GCC: (GNU) 4.8.1"
	.def	__ZNSaIcEC1Ev;	.scl	2;	.type	32;	.endef
	.def	__ZNSsC1EPKcRKSaIcE;	.scl	2;	.type	32;	.endef
	.def	__ZNSaIcED1Ev;	.scl	2;	.type	32;	.endef
	.def	__ZNSspLEPKc;	.scl	2;	.type	32;	.endef
	.def	__ZStlsISt11char_traitsIcEERSt13basic_ostreamIcT_ES5_PKc;	.scl	2;	.type	32;	.endef
	.def	__ZSt4endlIcSt11char_traitsIcEERSt13basic_ostreamIT_T0_ES6_;	.scl	2;	.type	32;	.endef
	.def	__ZNSolsEPFRSoS_E;	.scl	2;	.type	32;	.endef
	.def	__ZStlsIcSt11char_traitsIcESaIcEERSt13basic_ostreamIT_T0_ES7_RKSbIS4_S5_T1_E;	.scl	2;	.type	32;	.endef
	.def	__ZNSsD1Ev;	.scl	2;	.type	32;	.endef
	.def	__Unwind_Resume;	.scl	2;	.type	32;	.endef
	.def	__ZNSt8ios_base4InitD1Ev;	.scl	2;	.type	32;	.endef
	.def	__ZNSt8ios_base4InitC1Ev;	.scl	2;	.type	32;	.endef
	.def	_atexit;	.scl	2;	.type	32;	.endef
